(lp0
(I667
I423
tp1
a(I667
I423
tp2
a(I667
I423
tp3
a(I667
I423
tp4
a(I667
I423
tp5
a(I667
I423
tp6
a(I667
I423
tp7
a(I667
I423
tp8
a(I667
I423
tp9
a(I667
I423
tp10
a(I667
I423
tp11
a(I667
I423
tp12
a(I667
I423
tp13
a(I667
I423
tp14
a(I667
I423
tp15
a(I667
I423
tp16
a(I667
I423
tp17
a(I667
I423
tp18
a(I667
I423
tp19
a(I667
I423
tp20
a(I667
I423
tp21
a(I667
I423
tp22
a(I667
I423
tp23
a(I667
I423
tp24
a(I667
I423
tp25
a(I667
I423
tp26
a(I667
I423
tp27
a(I667
I423
tp28
a(I667
I423
tp29
a(I667
I423
tp30
a(I667
I423
tp31
a(I667
I423
tp32
a(I667
I423
tp33
a(I667
I423
tp34
a(I667
I423
tp35
a(I667
I423
tp36
a(I667
I423
tp37
a(I667
I423
tp38
a(I667
I423
tp39
a(I667
I423
tp40
a(I667
I423
tp41
a(I667
I423
tp42
a(I667
I423
tp43
a(I667
I423
tp44
a(I667
I423
tp45
a(I667
I423
tp46
a(I667
I423
tp47
a(I667
I423
tp48
a(I667
I423
tp49
a(I667
I423
tp50
a(I667
I423
tp51
a(I667
I423
tp52
a(I667
I423
tp53
a(I667
I423
tp54
a(I667
I423
tp55
a(I667
I423
tp56
a(I667
I423
tp57
a(I667
I423
tp58
a(I667
I423
tp59
a(I667
I423
tp60
a(I667
I423
tp61
a(I667
I423
tp62
a(I667
I423
tp63
a(I667
I423
tp64
a(I667
I423
tp65
a(I667
I423
tp66
a(I667
I423
tp67
a(I667
I423
tp68
a(I667
I423
tp69
a(I667
I423
tp70
a(I667
I423
tp71
a(I667
I423
tp72
a(I667
I423
tp73
a(I667
I423
tp74
a(I667
I423
tp75
a(I667
I423
tp76
a(I667
I423
tp77
a(I667
I423
tp78
a(I667
I423
tp79
a(I667
I423
tp80
a(I667
I423
tp81
a(I667
I423
tp82
a(I667
I423
tp83
a(I667
I423
tp84
a(I667
I423
tp85
a(I667
I423
tp86
a(I667
I423
tp87
a(I667
I423
tp88
a(I667
I423
tp89
a(I667
I423
tp90
a(I667
I423
tp91
a(I667
I423
tp92
a(I667
I423
tp93
a(I667
I423
tp94
a(I667
I423
tp95
a(I667
I423
tp96
a(I667
I423
tp97
a(I667
I423
tp98
a(I667
I423
tp99
a(I667
I423
tp100
a(I667
I423
tp101
a(I667
I423
tp102
a(I667
I423
tp103
a(I667
I423
tp104
a(I667
I423
tp105
a(I667
I423
tp106
a(I667
I423
tp107
a(I667
I423
tp108
a(I667
I423
tp109
a(I667
I423
tp110
a(I667
I423
tp111
a(I667
I423
tp112
a(I667
I423
tp113
a(I667
I423
tp114
a(I667
I423
tp115
a(I667
I423
tp116
a(I667
I423
tp117
a(I667
I423
tp118
a(I667
I423
tp119
a(I667
I423
tp120
a(I667
I423
tp121
a(I667
I423
tp122
a(I667
I423
tp123
a(I667
I423
tp124
a(I667
I423
tp125
a(I667
I423
tp126
a(I667
I423
tp127
a(I667
I423
tp128
a(I667
I423
tp129
a(I667
I423
tp130
a(I667
I423
tp131
a(I667
I423
tp132
a(I667
I423
tp133
a(I667
I423
tp134
a(I667
I423
tp135
a(I667
I423
tp136
a(I667
I423
tp137
a(I667
I423
tp138
a(I667
I423
tp139
a(I667
I423
tp140
a(I667
I423
tp141
a(I667
I423
tp142
a(I667
I423
tp143
a(I667
I423
tp144
a(I667
I423
tp145
a(I667
I423
tp146
a(I667
I423
tp147
a(I667
I423
tp148
a(I667
I423
tp149
a(I667
I423
tp150
a(I667
I423
tp151
a(I666
I422
tp152
a(I666
I422
tp153
a(I666
I422
tp154
a(I665
I420
tp155
a(I665
I420
tp156
a(I664
I418
tp157
a(I662
I418
tp158
a(I662
I416
tp159
a(I661
I415
tp160
a(I661
I415
tp161
a(I660
I413
tp162
a(I660
I412
tp163
a(I658
I410
tp164
a(I658
I410
tp165
a(I658
I410
tp166
a(I657
I409
tp167
a(I657
I408
tp168
a(I657
I408
tp169
a(I655
I407
tp170
a(I653
I405
tp171
a(I653
I405
tp172
a(I652
I404
tp173
a(I651
I403
tp174
a(I650
I402
tp175
a(I649
I402
tp176
a(I649
I402
tp177
a(I648
I401
tp178
a(I647
I400
tp179
a(I646
I399
tp180
a(I646
I399
tp181
a(I645
I398
tp182
a(I645
I398
tp183
a(I642
I396
tp184
a(I641
I395
tp185
a(I639
I394
tp186
a(I637
I393
tp187
a(I637
I393
tp188
a(I636
I391
tp189
a(I634
I390
tp190
a(I631
I389
tp191
a(I627
I388
tp192
a(I627
I388
tp193
a(I624
I387
tp194
a(I621
I386
tp195
a(I619
I386
tp196
a(I618
I385
tp197
a(I618
I385
tp198
a(I616
I385
tp199
a(I615
I384
tp200
a(I613
I384
tp201
a(I610
I384
tp202
a(I610
I384
tp203
a(I608
I384
tp204
a(I606
I384
tp205
a(I604
I384
tp206
a(I599
I383
tp207
a(I594
I382
tp208
a(I594
I382
tp209
a(I593
I382
tp210
a(I589
I382
tp211
a(I587
I382
tp212
a(I585
I382
tp213
a(I583
I382
tp214
a(I583
I382
tp215
a(I582
I382
tp216
a(I582
I382
tp217
a(I581
I383
tp218
a(I579
I383
tp219
a(I579
I383
tp220
a(I579
I383
tp221
a(I578
I384
tp222
a(I574
I387
tp223
a(I571
I390
tp224
a(I571
I390
tp225
a(I568
I393
tp226
a(I565
I398
tp227
a(I563
I405
tp228
a(I560
I411
tp229
a(I558
I416
tp230
a(I558
I416
tp231
a(I555
I422
tp232
a(I553
I428
tp233
a(I553
I432
tp234
a(I552
I439
tp235
a(I552
I439
tp236
a(I550
I445
tp237
a(I549
I452
tp238
a(I549
I459
tp239
a(I548
I465
tp240
a(I547
I470
tp241
a(I547
I470
tp242
a(I547
I476
tp243
a(I546
I483
tp244
a(I546
I489
tp245
a(I546
I498
tp246
a(I546
I498
tp247
a(I547
I505
tp248
a(I547
I511
tp249
a(I547
I518
tp250
a(I549
I526
tp251
a(I549
I526
tp252
a(I551
I535
tp253
a(I553
I542
tp254
a(I557
I549
tp255
a(I562
I556
tp256
a(I562
I556
tp257
a(I568
I563
tp258
a(I572
I571
tp259
a(I577
I576
tp260
a(I582
I581
tp261
a(I587
I586
tp262
a(I587
I586
tp263
a(I594
I592
tp264
a(I599
I597
tp265
a(I604
I601
tp266
a(I608
I604
tp267
a(I608
I604
tp268
a(I613
I608
tp269
a(I618
I612
tp270
a(I623
I614
tp271
a(I626
I616
tp272
a(I632
I618
tp273
a(I632
I618
tp274
a(I637
I620
tp275
a(I641
I621
tp276
a(I643
I621
tp277
a(I646
I621
tp278
a(I646
I621
tp279
a(I649
I621
tp280
a(I654
I621
tp281
a(I661
I619
tp282
a(I669
I619
tp283
a(I669
I619
tp284
a(I675
I619
tp285
a(I679
I619
tp286
a(I684
I618
tp287
a(I689
I617
tp288
a(I695
I615
tp289
a(I695
I615
tp290
a(I703
I612
tp291
a(I707
I611
tp292
a(I710
I610
tp293
a(I715
I610
tp294
a(I715
I610
tp295
a(I718
I609
tp296
a(I720
I608
tp297
a(I723
I607
tp298
a(I724
I607
tp299
a(I727
I605
tp300
a(I727
I605
tp301
a(I728
I605
tp302
a(I729
I605
tp303
a(I729
I605
tp304
a(I729
I605
tp305
a(I729
I605
tp306
a(I730
I605
tp307
a(I730
I605
tp308
a(I730
I605
tp309
a(I730
I605
tp310
a(I730
I605
tp311
a(I730
I605
tp312
a(I730
I605
tp313
a(I730
I605
tp314
a(I730
I605
tp315
a(I730
I605
tp316
a(I730
I605
tp317
a(I730
I605
tp318
a(I730
I605
tp319
a(I730
I605
tp320
a(I730
I605
tp321
a(I730
I605
tp322
a(I730
I605
tp323
a(I730
I605
tp324
a(I730
I605
tp325
a(I730
I605
tp326
a(I730
I605
tp327
a(I730
I605
tp328
a(I730
I605
tp329
a(I730
I605
tp330
a(I730
I605
tp331
a(I730
I605
tp332
a(I730
I605
tp333
a(I730
I605
tp334
a(I730
I605
tp335
a(I730
I605
tp336
a(I730
I605
tp337
a(I730
I605
tp338
a(I730
I605
tp339
a(I730
I605
tp340
a(I730
I605
tp341
a(I730
I605
tp342
a(I730
I605
tp343
a(I730
I605
tp344
a(I730
I605
tp345
a(I730
I605
tp346
a(I730
I605
tp347
a(I730
I605
tp348
a(I730
I605
tp349
a(I730
I605
tp350
a(I730
I605
tp351
a(I730
I605
tp352
a(I730
I605
tp353
a(I730
I605
tp354
a(I730
I605
tp355
a(I730
I605
tp356
a(I730
I605
tp357
a(I730
I605
tp358
a(I730
I605
tp359
a(I730
I605
tp360
a(I730
I605
tp361
a(I730
I605
tp362
a(I730
I605
tp363
a(I730
I605
tp364
a(I730
I605
tp365
a(I730
I605
tp366
a(I730
I605
tp367
a(I730
I605
tp368
a(I730
I605
tp369
a(I730
I605
tp370
a(I730
I605
tp371
a(I730
I605
tp372
a(I730
I605
tp373
a(I730
I605
tp374
a(I730
I605
tp375
a(I730
I605
tp376
a(I730
I604
tp377
a(I732
I600
tp378
a(I734
I597
tp379
a(I735
I595
tp380
a(I735
I595
tp381
a(I738
I590
tp382
a(I739
I588
tp383
a(I741
I585
tp384
a(I743
I582
tp385
a(I743
I580
tp386
a(I743
I580
tp387
a(I743
I579
tp388
a(I744
I576
tp389
a(I746
I571
tp390
a(I748
I569
tp391
a(I748
I569
tp392
a(I749
I565
tp393
a(I751
I562
tp394
a(I753
I557
tp395
a(I753
I554
tp396
a(I754
I552
tp397
a(I754
I552
tp398
a(I755
I551
tp399
a(I756
I548
tp400
a(I757
I545
tp401
a(I758
I542
tp402
a(I758
I542
tp403
a(I760
I537
tp404
a(I762
I533
tp405
a(I764
I528
tp406
a(I765
I523
tp407
a(I765
I523
tp408
a(I767
I519
tp409
a(I768
I516
tp410
a(I770
I513
tp411
a(I770
I511
tp412
a(I770
I510
tp413
a(I770
I510
tp414
a(I771
I508
tp415
a(I772
I505
tp416
a(I773
I501
tp417
a(I774
I495
tp418
a(I774
I495
tp419
a(I774
I492
tp420
a(I775
I487
tp421
a(I775
I485
tp422
a(I776
I481
tp423
a(I776
I481
tp424
a(I777
I478
tp425
a(I777
I475
tp426
a(I777
I472
tp427
a(I776
I467
tp428
a(I776
I467
tp429
a(I775
I463
tp430
a(I774
I457
tp431
a(I774
I453
tp432
a(I773
I448
tp433
a(I772
I444
tp434
a(I772
I444
tp435
a(I770
I441
tp436
a(I770
I437
tp437
a(I769
I433
tp438
a(I768
I428
tp439
a(I768
I427
tp440
a(I768
I427
tp441
a(I767
I424
tp442
a(I766
I422
tp443
a(I765
I418
tp444
a(I763
I417
tp445
a(I763
I417
tp446
a(I762
I415
tp447
a(I761
I413
tp448
a(I760
I412
tp449
a(I759
I410
tp450
a(I759
I410
tp451
a(I757
I410
tp452
a(I754
I408
tp453
a(I753
I407
tp454
a(I751
I406
tp455
a(I751
I405
tp456
a(I751
I405
tp457
a(I751
I405
tp458
a(I749
I405
tp459
a(I747
I404
tp460
a(I742
I403
tp461
a(I742
I403
tp462
a(I739
I402
tp463
a(I735
I401
tp464
a(I731
I401
tp465
a(I727
I400
tp466
a(I722
I399
tp467
a(I722
I399
tp468
a(I718
I399
tp469
a(I715
I399
tp470
a(I711
I399
tp471
a(I705
I399
tp472
a(I705
I399
tp473
a(I698
I399
tp474
a(I694
I399
tp475
a(I691
I399
tp476
a(I688
I399
tp477
a(I688
I399
tp478
a(I685
I399
tp479
a(I683
I399
tp480
a(I681
I399
tp481
a(I679
I400
tp482
a(I678
I401
tp483
a(I678
I401
tp484
a(I676
I401
tp485
a(I676
I401
tp486
a(I674
I402
tp487
a(I670
I405
tp488
a(I670
I405
tp489
a(I670
I406
tp490
a(I668
I407
tp491
a(I667
I410
tp492
a(I665
I411
tp493
a(I665
I411
tp494
a(I664
I413
tp495
a(I664
I413
tp496
a(I664
I414
tp497
a(I663
I415
tp498
a(I662
I417
tp499
a(I662
I417
tp500
a(I662
I420
tp501
a(I661
I425
tp502
a(I659
I431
tp503
a(I659
I436
tp504
a(I659
I436
tp505
a(I658
I441
tp506
a(I658
I445
tp507
a(I658
I451
tp508
a(I658
I454
tp509
a(I658
I454
tp510
a(I658
I457
tp511
a(I658
I458
tp512
a(I658
I459
tp513
a(I658
I461
tp514
a(I658
I462
tp515
a(I658
I462
tp516
a(I658
I463
tp517
a(I658
I465
tp518
a(I658
I467
tp519
a(I658
I469
tp520
a(I658
I469
tp521
a(I658
I470
tp522
a(I658
I472
tp523
a(I658
I472
tp524
a(I658
I472
tp525
a(I658
I473
tp526
a(I658
I473
tp527
a(I658
I473
tp528
a(I658
I473
tp529
a(I658
I473
tp530
a(I658
I473
tp531
a(I658
I473
tp532
a(I658
I473
tp533
a(I658
I473
tp534
a(I658
I473
tp535
a(I658
I473
tp536
a(I658
I473
tp537
a(I658
I473
tp538
a(I658
I473
tp539
a(I658
I473
tp540
a(I658
I473
tp541
a(I658
I473
tp542
a(I658
I473
tp543
a(I658
I473
tp544
a(I658
I473
tp545
a(I658
I473
tp546
a(I658
I473
tp547
a(I658
I473
tp548
a(I658
I473
tp549
a(I658
I473
tp550
a(I658
I473
tp551
a(I658
I473
tp552
a(I658
I473
tp553
a(I658
I473
tp554
a(I658
I473
tp555
a(I658
I473
tp556
a(I658
I473
tp557
a(I658
I473
tp558
a(I658
I473
tp559
a(I658
I473
tp560
a(I658
I473
tp561
a(I658
I473
tp562
a(I658
I473
tp563
a(I658
I473
tp564
a(I658
I473
tp565
a(I658
I473
tp566
a(I658
I473
tp567
a(I658
I473
tp568
a(I658
I473
tp569
a(I658
I473
tp570
a(I658
I473
tp571
a(I658
I473
tp572
a(I658
I473
tp573
a(I658
I473
tp574
a(I658
I473
tp575
a(I658
I473
tp576
a(I658
I473
tp577
a(I658
I473
tp578
a(I658
I473
tp579
a(I658
I473
tp580
a(I658
I473
tp581
a(I658
I473
tp582
a(I658
I473
tp583
a(I658
I473
tp584
a(I658
I473
tp585
a(I658
I473
tp586
a(I658
I473
tp587
a(I658
I473
tp588
a(I658
I473
tp589
a(I658
I473
tp590
a(I658
I473
tp591
a(I658
I473
tp592
a(I658
I473
tp593
a(I658
I473
tp594
a(I658
I473
tp595
a(I658
I473
tp596
a(I658
I473
tp597
a(I658
I473
tp598
a(I658
I473
tp599
a(I658
I473
tp600
a(I658
I473
tp601
a(I658
I473
tp602
a(I658
I473
tp603
a(I658
I473
tp604
a(I658
I473
tp605
a(I658
I473
tp606
a(I658
I473
tp607
a(I658
I473
tp608
a(I658
I473
tp609
a(I658
I473
tp610
a(I658
I473
tp611
a(I658
I473
tp612
a(I658
I473
tp613
a(I658
I473
tp614
a(I658
I473
tp615
a(I658
I473
tp616
a(I658
I473
tp617
a(I658
I473
tp618
a(I658
I473
tp619
a(I658
I473
tp620
a(I658
I473
tp621
a(I658
I473
tp622
a(I658
I473
tp623
a(I658
I473
tp624
a(I658
I473
tp625
a(I658
I473
tp626
a(I658
I473
tp627
a(I658
I473
tp628
a(I658
I473
tp629
a(I658
I473
tp630
a(I658
I473
tp631
a(I658
I473
tp632
a(I658
I473
tp633
a(I658
I473
tp634
a(I658
I473
tp635
a(I658
I473
tp636
a(I658
I473
tp637
a(I658
I473
tp638
a(I658
I473
tp639
a(I658
I473
tp640
a(I658
I473
tp641
a(I658
I473
tp642
a(I658
I473
tp643
a(I658
I473
tp644
a(I658
I473
tp645
a(I658
I473
tp646
a(I658
I473
tp647
a(I658
I473
tp648
a(I658
I473
tp649
a(I658
I473
tp650
a(I658
I473
tp651
a(I658
I473
tp652
a(I658
I473
tp653
a(I658
I473
tp654
a(I658
I473
tp655
a(I658
I473
tp656
a(I658
I473
tp657
a(I658
I473
tp658
a(I658
I473
tp659
a(I658
I473
tp660
a(I658
I473
tp661
a(I658
I473
tp662
a(I658
I473
tp663
a(I658
I473
tp664
a(I658
I473
tp665
a(I658
I473
tp666
a(I658
I473
tp667
a(I658
I473
tp668
a(I658
I473
tp669
a(I658
I473
tp670
a(I658
I473
tp671
a(I658
I473
tp672
a(I658
I473
tp673
a(I658
I473
tp674
a(I658
I473
tp675
a(I658
I473
tp676
a(I658
I473
tp677
a(I658
I473
tp678
a(I658
I473
tp679
a(I658
I473
tp680
a(I658
I473
tp681
a(I658
I473
tp682
a(I658
I473
tp683
a(I658
I473
tp684
a(I658
I473
tp685
a(I658
I473
tp686
a(I656
I472
tp687
a(I656
I472
tp688
a(I651
I468
tp689
a(I646
I465
tp690
a(I640
I461
tp691
a(I631
I455
tp692
a(I624
I450
tp693
a(I624
I450
tp694
a(I615
I443
tp695
a(I603
I438
tp696
a(I595
I432
tp697
a(I587
I428
tp698
a(I587
I428
tp699
a(I581
I424
tp700
a(I575
I420
tp701
a(I570
I417
tp702
a(I566
I413
tp703
a(I566
I413
tp704
a(I562
I410
tp705
a(I557
I408
tp706
a(I555
I408
tp707
a(I553
I408
tp708
a(I552
I407
tp709
a(I552
I407
tp710
a(I552
I407
tp711
a(I552
I407
tp712
a(I552
I407
tp713
a(I552
I407
tp714
a(I552
I407
tp715
a(I552
I407
tp716
a(I552
I407
tp717
a(I552
I407
tp718
a(I552
I407
tp719
a(I552
I407
tp720
a(I552
I407
tp721
a(I552
I407
tp722
a(I552
I407
tp723
a(I552
I407
tp724
a(I552
I407
tp725
a(I552
I407
tp726
a(I552
I407
tp727
a(I552
I407
tp728
a(I552
I407
tp729
a(I552
I407
tp730
a(I552
I407
tp731
a(I552
I407
tp732
a(I552
I407
tp733
a(I552
I407
tp734
a(I552
I407
tp735
a(I552
I407
tp736
a(I552
I407
tp737
a(I552
I407
tp738
a(I552
I407
tp739
a(I552
I407
tp740
a(I552
I407
tp741
a(I552
I407
tp742
a(I552
I407
tp743
a(I552
I407
tp744
a(I552
I407
tp745
a(I552
I407
tp746
a(I552
I407
tp747
a(I552
I407
tp748
a(I552
I407
tp749
a(I552
I407
tp750
a(I552
I407
tp751
a(I552
I407
tp752
a(I552
I407
tp753
a(I552
I407
tp754
a(I552
I407
tp755
a(I552
I407
tp756
a(I554
I403
tp757
a(I554
I403
tp758
a(I559
I399
tp759
a(I570
I392
tp760
a(I585
I384
tp761
a(I602
I373
tp762
a(I602
I373
tp763
a(I620
I365
tp764
a(I635
I358
tp765
a(I648
I354
tp766
a(I658
I349
tp767
a(I667
I347
tp768
a(I667
I347
tp769
a(I675
I344
tp770
a(I683
I343
tp771
a(I689
I341
tp772
a(I696
I340
tp773
a(I696
I340
tp774
a(I700
I339
tp775
a(I702
I339
tp776
a(I702
I339
tp777
a(I702
I339
tp778
a(I702
I339
tp779
a(I703
I339
tp780
a(I703
I339
tp781
a(I704
I339
tp782
a(I704
I339
tp783
a(I704
I339
tp784
a(I704
I339
tp785
a(I704
I339
tp786
a(I704
I339
tp787
a(I704
I339
tp788
a(I704
I339
tp789
a(I704
I339
tp790
a(I704
I339
tp791
a(I704
I339
tp792
a(I704
I339
tp793
a(I704
I339
tp794
a(I704
I339
tp795
a(I704
I339
tp796
a(I704
I339
tp797
a(I704
I339
tp798
a(I704
I339
tp799
a(I704
I339
tp800
a(I704
I339
tp801
a(I704
I339
tp802
a(I704
I339
tp803
a(I704
I339
tp804
a(I704
I339
tp805
a(I704
I339
tp806
a(I704
I339
tp807
a(I704
I339
tp808
a(I704
I339
tp809
a(I704
I339
tp810
a(I704
I339
tp811
a(I704
I339
tp812
a(I704
I339
tp813
a(I704
I339
tp814
a(I704
I339
tp815
a(I704
I339
tp816
a(I704
I339
tp817
a(I704
I339
tp818
a(I704
I339
tp819
a(I704
I339
tp820
a(I704
I339
tp821
a(I704
I339
tp822
a(I704
I339
tp823
a(I704
I339
tp824
a(I704
I339
tp825
a(I704
I339
tp826
a(I704
I339
tp827
a(I704
I339
tp828
a(I704
I339
tp829
a(I705
I339
tp830
a(I707
I340
tp831
a(I710
I342
tp832
a(I710
I342
tp833
a(I715
I345
tp834
a(I721
I348
tp835
a(I727
I351
tp836
a(I732
I355
tp837
a(I741
I360
tp838
a(I741
I360
tp839
a(I750
I366
tp840
a(I758
I373
tp841
a(I767
I380
tp842
a(I775
I386
tp843
a(I775
I386
tp844
a(I784
I391
tp845
a(I791
I397
tp846
a(I797
I402
tp847
a(I801
I406
tp848
a(I806
I410
tp849
a(I806
I410
tp850
a(I808
I412
tp851
a(I809
I412
tp852
a(I809
I412
tp853
a(I810
I413
tp854
a(I810
I413
tp855
a(I810
I413
tp856
a(I810
I413
tp857
a(I810
I413
tp858
a(I810
I413
tp859
a(I810
I413
tp860
a(I810
I413
tp861
a(I810
I413
tp862
a(I811
I413
tp863
a(I811
I413
tp864
a(I811
I413
tp865
a(I811
I413
tp866
a(I811
I413
tp867
a(I811
I413
tp868
a(I811
I413
tp869
a(I811
I413
tp870
a(I811
I413
tp871
a(I811
I413
tp872
a(I811
I413
tp873
a(I811
I413
tp874
a(I811
I413
tp875
a(I811
I413
tp876
a(I811
I413
tp877
a(I811
I413
tp878
a(I811
I413
tp879
a(I811
I413
tp880
a(I811
I413
tp881
a(I811
I413
tp882
a(I811
I413
tp883
a(I811
I413
tp884
a(I811
I413
tp885
a(I811
I413
tp886
a(I811
I413
tp887
a(I811
I413
tp888
a(I811
I413
tp889
a(I811
I413
tp890
a(I811
I414
tp891
a(I806
I417
tp892
a(I806
I417
tp893
a(I803
I419
tp894
a(I798
I422
tp895
a(I792
I424
tp896
a(I786
I427
tp897
a(I786
I427
tp898
a(I780
I430
tp899
a(I771
I433
tp900
a(I764
I436
tp901
a(I756
I439
tp902
a(I756
I439
tp903
a(I748
I442
tp904
a(I740
I447
tp905
a(I731
I451
tp906
a(I722
I455
tp907
a(I713
I460
tp908
a(I713
I460
tp909
a(I706
I463
tp910
a(I697
I466
tp911
a(I690
I470
tp912
a(I681
I474
tp913
a(I681
I474
tp914
a(I673
I477
tp915
a(I666
I479
tp916
a(I658
I481
tp917
a(I653
I483
tp918
a(I653
I483
tp919
a(I645
I486
tp920
a(I639
I488
tp921
a(I633
I491
tp922
a(I629
I493
tp923
a(I624
I495
tp924
a(I624
I495
tp925
a(I623
I495
tp926
a(I621
I496
tp927
a(I621
I496
tp928
a(I621
I496
tp929
a(I621
I496
tp930
a(I621
I496
tp931
a(I621
I496
tp932
a(I621
I496
tp933
a(I621
I496
tp934
a(I621
I496
tp935
a(I621
I496
tp936
a(I621
I496
tp937
a(I621
I496
tp938
a(I621
I496
tp939
a(I621
I496
tp940
a(I621
I496
tp941
a(I621
I496
tp942
a(I621
I496
tp943
a(I621
I496
tp944
a(I621
I496
tp945
a(I621
I496
tp946
a(I621
I496
tp947
a(I621
I496
tp948
a(I621
I496
tp949
a(I621
I496
tp950
a(I621
I496
tp951
a(I621
I496
tp952
a(I621
I496
tp953
a(I621
I496
tp954
a(I621
I496
tp955
a(I621
I496
tp956
a(I621
I496
tp957
a(I621
I496
tp958
a(I621
I496
tp959
a(I621
I496
tp960
a(I621
I496
tp961
a(I621
I496
tp962
a(I621
I496
tp963
a(I621
I496
tp964
a(I621
I496
tp965
a(I621
I496
tp966
a(I621
I496
tp967
a(I621
I496
tp968
a(I621
I496
tp969
a(I621
I496
tp970
a(I621
I496
tp971
a(I621
I496
tp972
a(I621
I496
tp973
a(I621
I496
tp974
a(I621
I496
tp975
a(I621
I496
tp976
a(I621
I496
tp977
a(I621
I496
tp978
a(I621
I496
tp979
a(I621
I496
tp980
a(I621
I496
tp981
a(I621
I496
tp982
a(I621
I496
tp983
a(I621
I496
tp984
a(I621
I496
tp985
a(I621
I496
tp986
a(I621
I496
tp987
a(I621
I496
tp988
a(I621
I496
tp989
a(I621
I496
tp990
a(I621
I496
tp991
a(I621
I496
tp992
a(I621
I496
tp993
a(I621
I496
tp994
a(I621
I496
tp995
a(I621
I496
tp996
a(I621
I496
tp997
a(I621
I496
tp998
a(I621
I496
tp999
a(I621
I496
tp1000
a(I621
I496
tp1001
a(I621
I496
tp1002
a(I621
I496
tp1003
a(I621
I496
tp1004
a(I621
I496
tp1005
a(I621
I496
tp1006
a(I621
I496
tp1007
a(I621
I496
tp1008
a(I621
I496
tp1009
a(I621
I496
tp1010
a(I621
I496
tp1011
a(I621
I496
tp1012
a(I621
I496
tp1013
a(I621
I496
tp1014
a(I621
I496
tp1015
a(I621
I496
tp1016
a(I621
I496
tp1017
a(I621
I496
tp1018
a(I621
I496
tp1019
a(I621
I496
tp1020
a(I621
I496
tp1021
a(I621
I496
tp1022
a(I621
I496
tp1023
a(I621
I496
tp1024
a(I621
I496
tp1025
a(I621
I496
tp1026
a(I621
I496
tp1027
a(I621
I496
tp1028
a(I621
I496
tp1029
a(I621
I496
tp1030
a(I621
I496
tp1031
a(I621
I496
tp1032
a(I621
I496
tp1033
a(I621
I496
tp1034
a(I621
I496
tp1035
a(I621
I496
tp1036
a(I621
I496
tp1037
a(I621
I496
tp1038
a(I621
I496
tp1039
a(I621
I496
tp1040
a(I621
I496
tp1041
a(I621
I496
tp1042
a(I621
I496
tp1043
a(I621
I496
tp1044
a(I621
I496
tp1045
a(I621
I496
tp1046
a(I621
I496
tp1047
a(I621
I496
tp1048
a(I621
I496
tp1049
a(I621
I496
tp1050
a(I621
I496
tp1051
a(I621
I496
tp1052
a(I621
I496
tp1053
a(I621
I496
tp1054
a(I621
I496
tp1055
a(I621
I496
tp1056
a(I621
I496
tp1057
a(I621
I496
tp1058
a(I621
I496
tp1059
a(I621
I496
tp1060
a(I621
I496
tp1061
a(I621
I496
tp1062
a(I621
I496
tp1063
a(I621
I496
tp1064
a(I621
I496
tp1065
a(I621
I496
tp1066
a(I621
I496
tp1067
a(I621
I496
tp1068
a(I621
I496
tp1069
a(I621
I496
tp1070
a(I621
I496
tp1071
a(I621
I496
tp1072
a(I621
I496
tp1073
a(I621
I496
tp1074
a(I621
I496
tp1075
a(I621
I496
tp1076
a(I621
I496
tp1077
a(I621
I496
tp1078
a(I621
I496
tp1079
a(I621
I496
tp1080
a(I621
I496
tp1081
a(I621
I496
tp1082
a(I621
I496
tp1083
a(I621
I496
tp1084
a(I621
I496
tp1085
a(I621
I496
tp1086
a(I621
I496
tp1087
a(I621
I496
tp1088
a(I621
I496
tp1089
a(I621
I496
tp1090
a(I621
I496
tp1091
a(I621
I496
tp1092
a(I621
I496
tp1093
a(I621
I496
tp1094
a(I621
I496
tp1095
a(I621
I496
tp1096
a(I621
I496
tp1097
a(I621
I496
tp1098
a(I621
I496
tp1099
a(I621
I496
tp1100
a(I621
I496
tp1101
a(I621
I496
tp1102
a(I621
I496
tp1103
a(I621
I496
tp1104
a(I621
I496
tp1105
a(I621
I496
tp1106
a(I621
I496
tp1107
a(I621
I496
tp1108
a(I621
I496
tp1109
a(I621
I496
tp1110
a(I621
I496
tp1111
a(I621
I496
tp1112
a(I621
I496
tp1113
a(I621
I496
tp1114
a(I621
I496
tp1115
a(I621
I496
tp1116
a(I621
I496
tp1117
a(I621
I496
tp1118
a(I621
I496
tp1119
a(I621
I496
tp1120
a(I621
I496
tp1121
a(I621
I496
tp1122
a(I621
I496
tp1123
a(I621
I496
tp1124
a(I621
I496
tp1125
a(I621
I496
tp1126
a(I621
I496
tp1127
a(I621
I496
tp1128
a(I621
I496
tp1129
a(I621
I496
tp1130
a(I621
I496
tp1131
a(I621
I496
tp1132
a(I621
I496
tp1133
a(I621
I496
tp1134
a(I621
I496
tp1135
a(I621
I496
tp1136
a(I621
I496
tp1137
a(I621
I496
tp1138
a(I621
I496
tp1139
a(I621
I496
tp1140
a(I621
I496
tp1141
a(I621
I496
tp1142
a(I620
I496
tp1143
a(I619
I496
tp1144
a(I617
I495
tp1145
a(I616
I494
tp1146
a(I616
I494
tp1147
a(I615
I494
tp1148
a(I611
I493
tp1149
a(I608
I492
tp1150
a(I605
I491
tp1151
a(I605
I491
tp1152
a(I602
I490
tp1153
a(I601
I490
tp1154
a(I596
I489
tp1155
a(I593
I488
tp1156
a(I593
I488
tp1157
a(I589
I488
tp1158
a(I586
I487
tp1159
a(I582
I487
tp1160
a(I577
I486
tp1161
a(I577
I486
tp1162
a(I574
I486
tp1163
a(I573
I485
tp1164
a(I569
I484
tp1165
a(I566
I484
tp1166
a(I561
I483
tp1167
a(I561
I483
tp1168
a(I557
I482
tp1169
a(I555
I482
tp1170
a(I554
I482
tp1171
a(I551
I480
tp1172
a(I551
I480
tp1173
a(I546
I480
tp1174
a(I544
I479
tp1175
a(I542
I479
tp1176
a(I540
I479
tp1177
a(I538
I478
tp1178
a(I538
I478
tp1179
a(I536
I478
tp1180
a(I534
I477
tp1181
a(I532
I476
tp1182
a(I529
I476
tp1183
a(I529
I476
tp1184
a(I525
I476
tp1185
a(I521
I476
tp1186
a(I516
I476
tp1187
a(I511
I476
tp1188
a(I511
I476
tp1189
a(I506
I476
tp1190
a(I499
I476
tp1191
a(I492
I476
tp1192
a(I485
I476
tp1193
a(I485
I476
tp1194
a(I477
I476
tp1195
a(I468
I476
tp1196
a(I462
I476
tp1197
a(I462
I476
tp1198
a(I456
I476
tp1199
a(I449
I476
tp1200
a(I442
I476
tp1201
a(I434
I477
tp1202
a(I434
I477
tp1203
a(I424
I477
tp1204
a(I417
I477
tp1205
a(I409
I478
tp1206
a(I401
I479
tp1207
a(I392
I480
tp1208
a(I392
I480
tp1209
a(I384
I480
tp1210
a(I375
I482
tp1211
a(I367
I484
tp1212
a(I359
I485
tp1213
a(I359
I485
tp1214
a(I350
I486
tp1215
a(I342
I487
tp1216
a(I332
I488
tp1217
a(I324
I489
tp1218
a(I314
I490
tp1219
a(I314
I490
tp1220
a(I306
I491
tp1221
a(I297
I493
tp1222
a(I289
I493
tp1223
a(I281
I496
tp1224
a(I281
I496
tp1225
a(I274
I497
tp1226
a(I265
I498
tp1227
a(I258
I498
tp1228
a(I250
I499
tp1229
a(I243
I501
tp1230
a(I243
I501
tp1231
a(I237
I501
tp1232
a(I232
I501
tp1233
a(I229
I502
tp1234
a(I227
I502
tp1235
a(I227
I502
tp1236
a(I225
I502
tp1237
a(I224
I502
tp1238
a(I224
I502
tp1239
a(I224
I502
tp1240
a(I224
I502
tp1241
a(I224
I502
tp1242
a(I223
I502
tp1243
a(I222
I502
tp1244
a(I222
I502
tp1245
a(I222
I502
tp1246
a(I222
I502
tp1247
a(I222
I502
tp1248
a(I222
I502
tp1249
a(I222
I502
tp1250
a(I222
I502
tp1251
a(I222
I502
tp1252
a(I222
I502
tp1253
a(I222
I502
tp1254
a(I222
I502
tp1255
a(I222
I502
tp1256
a(I222
I502
tp1257
a(I222
I502
tp1258
a(I222
I502
tp1259
a(I222
I502
tp1260
a(I222
I502
tp1261
a(I222
I502
tp1262
a(I222
I502
tp1263
a(I222
I502
tp1264
a(I222
I502
tp1265
a(I222
I502
tp1266
a(I222
I502
tp1267
a(I222
I502
tp1268
a(I222
I502
tp1269
a(I222
I502
tp1270
a(I222
I502
tp1271
a(I221
I502
tp1272
a(I221
I501
tp1273
a(I221
I501
tp1274
a(I221
I496
tp1275
a(I221
I490
tp1276
a(I220
I483
tp1277
a(I220
I475
tp1278
a(I220
I475
tp1279
a(I220
I466
tp1280
a(I220
I457
tp1281
a(I220
I447
tp1282
a(I219
I439
tp1283
a(I219
I429
tp1284
a(I219
I429
tp1285
a(I219
I421
tp1286
a(I219
I412
tp1287
a(I219
I402
tp1288
a(I219
I391
tp1289
a(I219
I391
tp1290
a(I220
I381
tp1291
a(I220
I373
tp1292
a(I221
I368
tp1293
a(I222
I363
tp1294
a(I222
I361
tp1295
a(I222
I361
tp1296
a(I222
I360
tp1297
a(I222
I360
tp1298
a(I222
I360
tp1299
a(I222
I359
tp1300
a(I222
I359
tp1301
a(I222
I359
tp1302
a(I222
I359
tp1303
a(I222
I359
tp1304
a(I222
I359
tp1305
a(I222
I359
tp1306
a(I222
I359
tp1307
a(I222
I359
tp1308
a(I222
I359
tp1309
a(I222
I359
tp1310
a(I222
I359
tp1311
a(I222
I359
tp1312
a(I222
I359
tp1313
a(I222
I359
tp1314
a(I222
I359
tp1315
a(I222
I359
tp1316
a(I222
I359
tp1317
a(I222
I359
tp1318
a(I223
I358
tp1319
a(I226
I356
tp1320
a(I230
I354
tp1321
a(I230
I354
tp1322
a(I236
I352
tp1323
a(I243
I348
tp1324
a(I249
I346
tp1325
a(I256
I343
tp1326
a(I266
I340
tp1327
a(I266
I340
tp1328
a(I274
I337
tp1329
a(I284
I332
tp1330
a(I294
I327
tp1331
a(I305
I321
tp1332
a(I305
I321
tp1333
a(I316
I315
tp1334
a(I328
I309
tp1335
a(I340
I303
tp1336
a(I353
I296
tp1337
a(I366
I290
tp1338
a(I379
I283
tp1339
a(I379
I283
tp1340
a(I393
I274
tp1341
a(I404
I267
tp1342
a(I419
I261
tp1343
a(I430
I257
tp1344
a(I430
I257
tp1345
a(I438
I254
tp1346
a(I444
I251
tp1347
a(I448
I249
tp1348
a(I453
I247
tp1349
a(I454
I246
tp1350
a(I454
I246
tp1351
a(I455
I246
tp1352
a(I456
I245
tp1353
a(I457
I245
tp1354
a(I457
I245
tp1355
a(I457
I245
tp1356
a(I457
I245
tp1357
a(I457
I245
tp1358
a(I457
I245
tp1359
a(I457
I245
tp1360
a(I457
I245
tp1361
a(I457
I245
tp1362
a(I457
I245
tp1363
a(I457
I245
tp1364
a(I457
I245
tp1365
a(I457
I245
tp1366
a(I457
I245
tp1367
a(I457
I245
tp1368
a(I457
I245
tp1369
a(I457
I245
tp1370
a(I457
I245
tp1371
a(I457
I245
tp1372
a(I457
I245
tp1373
a(I457
I245
tp1374
a(I457
I245
tp1375
a(I457
I245
tp1376
a(I457
I245
tp1377
a(I457
I245
tp1378
a(I457
I245
tp1379
a(I457
I244
tp1380
a(I457
I243
tp1381
a(I457
I243
tp1382
a(I456
I242
tp1383
a(I456
I240
tp1384
a(I455
I239
tp1385
a(I454
I238
tp1386
a(I454
I238
tp1387
a(I453
I234
tp1388
a(I449
I231
tp1389
a(I448
I229
tp1390
a(I448
I228
tp1391
a(I448
I228
tp1392
a(I448
I226
tp1393
a(I448
I225
tp1394
a(I448
I224
tp1395
a(I448
I224
tp1396
a(I448
I224
tp1397
a(I448
I224
tp1398
a(I448
I224
tp1399
a(I448
I224
tp1400
a(I448
I224
tp1401
a(I448
I224
tp1402
a(I448
I224
tp1403
a(I448
I224
tp1404
a(I448
I224
tp1405
a(I448
I224
tp1406
a(I448
I224
tp1407
a(I448
I224
tp1408
a(I448
I224
tp1409
a(I448
I224
tp1410
a(I448
I224
tp1411
a(I448
I224
tp1412
a(I448
I224
tp1413
a(I448
I224
tp1414
a(I448
I224
tp1415
a(I448
I224
tp1416
a(I448
I224
tp1417
a(I448
I224
tp1418
a(I448
I224
tp1419
a(I448
I224
tp1420
a(I448
I224
tp1421
a(I448
I224
tp1422
a(I448
I224
tp1423
a(I448
I224
tp1424
a(I448
I224
tp1425
a(I448
I224
tp1426
a(I448
I224
tp1427
a(I448
I224
tp1428
a(I448
I224
tp1429
a(I448
I224
tp1430
a(I448
I224
tp1431
a(I448
I224
tp1432
a(I448
I224
tp1433
a(I448
I224
tp1434
a(I448
I224
tp1435
a(I448
I224
tp1436
a(I448
I224
tp1437
a(I448
I224
tp1438
a(I448
I224
tp1439
a(I448
I224
tp1440
a(I448
I224
tp1441
a(I448
I224
tp1442
a(I448
I224
tp1443
a(I448
I224
tp1444
a(I448
I224
tp1445
a(I448
I224
tp1446
a(I448
I224
tp1447
a(I448
I224
tp1448
a(I448
I224
tp1449
a(I448
I224
tp1450
a(I448
I224
tp1451
a(I448
I224
tp1452
a(I448
I224
tp1453
a(I448
I224
tp1454
a(I448
I224
tp1455
a(I448
I224
tp1456
a(I448
I224
tp1457
a(I448
I224
tp1458
a(I448
I224
tp1459
a(I448
I224
tp1460
a(I448
I224
tp1461
a(I448
I224
tp1462
a(I448
I224
tp1463
a(I448
I224
tp1464
a(I448
I224
tp1465
a(I448
I224
tp1466
a(I448
I224
tp1467
a(I448
I218
tp1468
a(I446
I211
tp1469
a(I446
I207
tp1470
a(I446
I207
tp1471
a(I446
I201
tp1472
a(I446
I197
tp1473
a(I446
I194
tp1474
a(I446
I191
tp1475
a(I446
I191
tp1476
a(I446
I189
tp1477
a(I446
I187
tp1478
a(I446
I184
tp1479
a(I446
I181
tp1480
a(I446
I181
tp1481
a(I446
I178
tp1482
a(I446
I175
tp1483
a(I446
I172
tp1484
a(I446
I168
tp1485
a(I446
I168
tp1486
a(I446
I166
tp1487
a(I447
I164
tp1488
a(I447
I164
tp1489
a(I447
I164
tp1490
a(I447
I164
tp1491
a(I447
I163
tp1492
a(I447
I160
tp1493
a(I447
I155
tp1494
a(I447
I150
tp1495
a(I447
I150
tp1496
a(I447
I145
tp1497
a(I447
I141
tp1498
a(I448
I137
tp1499
a(I448
I132
tp1500
a(I448
I128
tp1501
a(I448
I128
tp1502
a(I448
I126
tp1503
a(I448
I125
tp1504
a(I448
I123
tp1505
a(I448
I122
tp1506
a(I448
I122
tp1507
a(I448
I121
tp1508
a(I448
I118
tp1509
a(I448
I116
tp1510
a(I448
I114
tp1511
a(I448
I114
tp1512
a(I448
I113
tp1513
a(I448
I112
tp1514
a(I448
I111
tp1515
a(I448
I111
tp1516
a(I448
I111
tp1517
a(I448
I111
tp1518
a(I448
I111
tp1519
a(I447
I111
tp1520
a(I447
I111
tp1521
a(I446
I111
tp1522
a(I446
I111
tp1523
a(I445
I110
tp1524
a(I444
I110
tp1525
a(I443
I110
tp1526
a(I440
I110
tp1527
a(I436
I110
tp1528
a(I436
I110
tp1529
a(I430
I110
tp1530
a(I425
I110
tp1531
a(I419
I111
tp1532
a(I413
I111
tp1533
a(I413
I111
tp1534
a(I408
I111
tp1535
a(I404
I111
tp1536
a(I398
I112
tp1537
a(I393
I113
tp1538
a(I393
I113
tp1539
a(I388
I113
tp1540
a(I382
I113
tp1541
a(I377
I113
tp1542
a(I371
I113
tp1543
a(I371
I113
tp1544
a(I364
I114
tp1545
a(I357
I115
tp1546
a(I350
I115
tp1547
a(I343
I115
tp1548
a(I335
I117
tp1549
a(I335
I117
tp1550
a(I325
I117
tp1551
a(I318
I117
tp1552
a(I310
I118
tp1553
a(I302
I118
tp1554
a(I302
I118
tp1555
a(I294
I118
tp1556
a(I288
I118
tp1557
a(I282
I118
tp1558
a(I278
I118
tp1559
a(I274
I118
tp1560
a(I274
I118
tp1561
a(I272
I118
tp1562
a(I270
I118
tp1563
a(I267
I118
tp1564
a(I266
I118
tp1565
a(I266
I118
tp1566
a(I266
I118
tp1567
a(I264
I118
tp1568
a(I264
I118
tp1569
a(I263
I118
tp1570
a(I263
I118
tp1571
a(I263
I118
tp1572
a(I262
I118
tp1573
a(I262
I118
tp1574
a(I262
I118
tp1575
a(I262
I118
tp1576
a(I262
I118
tp1577
a(I262
I118
tp1578
a(I262
I118
tp1579
a(I262
I118
tp1580
a(I262
I118
tp1581
a(I262
I118
tp1582
a(I262
I118
tp1583
a(I262
I118
tp1584
a(I262
I118
tp1585
a(I262
I118
tp1586
a(I262
I118
tp1587
a(I262
I118
tp1588
a(I262
I118
tp1589
a(I262
I118
tp1590
a(I262
I118
tp1591
a(I262
I118
tp1592
a(I262
I118
tp1593
a(I262
I118
tp1594
a(I262
I118
tp1595
a(I262
I118
tp1596
a(I262
I118
tp1597
a(I262
I118
tp1598
a(I262
I118
tp1599
a(I262
I118
tp1600
a(I262
I118
tp1601
a(I262
I118
tp1602
a(I262
I118
tp1603
a(I262
I118
tp1604
a(I262
I118
tp1605
a(I262
I118
tp1606
a(I262
I118
tp1607
a(I262
I118
tp1608
a(I262
I118
tp1609
a(I262
I118
tp1610
a(I262
I118
tp1611
a(I262
I118
tp1612
a(I262
I118
tp1613
a(I262
I118
tp1614
a(I262
I118
tp1615
a(I262
I118
tp1616
a(I262
I118
tp1617
a(I262
I118
tp1618
a(I262
I118
tp1619
a(I262
I118
tp1620
a(I262
I118
tp1621
a(I262
I118
tp1622
a(I262
I118
tp1623
a(I262
I118
tp1624
a(I262
I118
tp1625
a(I262
I118
tp1626
a(I262
I118
tp1627
a(I262
I118
tp1628
a(I262
I118
tp1629
a(I262
I118
tp1630
a(I262
I118
tp1631
a(I262
I118
tp1632
a(I262
I118
tp1633
a(I262
I118
tp1634
a(I262
I118
tp1635
a(I262
I118
tp1636
a(I262
I118
tp1637
a(I262
I118
tp1638
a(I262
I118
tp1639
a(I262
I118
tp1640
a(I262
I118
tp1641
a(I262
I118
tp1642
a(I262
I118
tp1643
a(I262
I118
tp1644
a(I262
I118
tp1645
a(I262
I118
tp1646
a(I262
I118
tp1647
a(I262
I118
tp1648
a(I262
I118
tp1649
a(I262
I118
tp1650
a(I262
I118
tp1651
a(I262
I118
tp1652
a(I262
I118
tp1653
a(I262
I118
tp1654
a(I262
I118
tp1655
a(I262
I118
tp1656
a(I262
I118
tp1657
a(I262
I118
tp1658
a(I262
I118
tp1659
a(I262
I118
tp1660
a(I262
I118
tp1661
a(I262
I118
tp1662
a(I262
I118
tp1663
a(I262
I118
tp1664
a(I262
I118
tp1665
a(I262
I118
tp1666
a(I262
I118
tp1667
a(I262
I118
tp1668
a(I257
I118
tp1669
a(I257
I118
tp1670
a(I252
I117
tp1671
a(I243
I115
tp1672
a(I235
I112
tp1673
a(I235
I112
tp1674
a(I226
I109
tp1675
a(I219
I107
tp1676
a(I210
I104
tp1677
a(I203
I102
tp1678
a(I195
I100
tp1679
a(I195
I100
tp1680
a(I189
I98
tp1681
a(I180
I96
tp1682
a(I173
I93
tp1683
a(I164
I90
tp1684
a(I164
I90
tp1685
a(I157
I86
tp1686
a(I151
I84
tp1687
a(I144
I81
tp1688
a(I138
I79
tp1689
a(I132
I75
tp1690
a(I132
I75
tp1691
a(I127
I72
tp1692
a(I121
I69
tp1693
a(I116
I65
tp1694
a(I108
I61
tp1695
a(I108
I61
tp1696
a(I101
I57
tp1697
a(I95
I53
tp1698
a(I91
I49
tp1699
a(I87
I45
tp1700
a(I81
I41
tp1701
a(I81
I41
tp1702
a(I75
I35
tp1703
a(I70
I30
tp1704
a(I65
I25
tp1705
a(I61
I19
tp1706
a(I61
I19
tp1707
a(I57
I14
tp1708
a(I51
I9
tp1709
a(I46
I4
tp1710
a(I41
I0
tp1711
a(I34
I0
tp1712
a(I34
I0
tp1713
a(I29
I0
tp1714
a(I24
I0
tp1715
a(I19
I0
tp1716
a.